; Function Attrs: nounwind uwtable
define noundef zeroext i1 @duckdb_je_arena_init_huge(ptr noundef writeonly captures(none) %0) local_unnamed_addr #0 {
  %2 = load i64, ptr @duckdb_je_opt_oversize_threshold, align 8, !tbaa !10
  %3 = add i64 %2, -16384
  %or.cond = icmp ult i64 %3, 8070450532247912449
  br i1 %or.cond, label %atomic_store_zu.exit, label %4

4:                                                ; preds = %1
  store i64 0, ptr @duckdb_je_opt_oversize_threshold, align 8, !tbaa !10
  store i64 8070450532247932928, ptr @duckdb_je_oversize_threshold, align 8, !tbaa !10
  br label %8

atomic_store_zu.exit:                             ; preds = %1
  %5 = tail call i32 @duckdb_je_narenas_total_get() #18
  store i32 %5, ptr @huge_arena_ind, align 4, !tbaa !3
  %6 = load i64, ptr @duckdb_je_opt_oversize_threshold, align 8, !tbaa !10
  store i64 %6, ptr @duckdb_je_oversize_threshold, align 8, !tbaa !10
  %7 = getelementptr inbounds nuw i8, ptr %0, i64 69328
  store atomic i64 %6, ptr %7 monotonic, align 8
  br label %8

8:                                                ; preds = %atomic_store_zu.exit, %4
  ret i1 %or.cond
}